; Function Attrs: mustprogress uwtable
define void @_ZNK7openvdb5v11_06points21StringAttributeHandle3getB5cxx11Ejj(ptr noalias nonnull sret(%"class.std::__cxx11::basic_string") align 8 %agg.result, ptr nocapture noundef nonnull readonly align 8 dereferenceable(88) %this, i32 noundef %n, i32 noundef %m) local_unnamed_addr #3 align 2 personality ptr @__gxx_personality_v0 {
entry:
  tail call void @_ZNSt7__cxx1112basic_stringIcSt11char_traitsIcESaIcEEC1Ev(ptr noundef nonnull align 8 dereferenceable(32) %agg.result) #23
  invoke void @_ZNK7openvdb5v11_06points21StringAttributeHandle3getERNSt7__cxx1112basic_stringIcSt11char_traitsIcESaIcEEEjj(ptr noundef nonnull align 8 dereferenceable(88) %this, ptr noundef nonnull align 8 dereferenceable(32) %agg.result, i32 noundef %n, i32 noundef %m)
          to label %nrvo.skipdtor unwind label %lpad

lpad:                                             ; preds = %entry
  %0 = landingpad { ptr, i32 }
          cleanup
  tail call void @_ZNSt7__cxx1112basic_stringIcSt11char_traitsIcESaIcEED1Ev(ptr noundef nonnull align 8 dereferenceable(32) %agg.result) #23
  resume { ptr, i32 } %0

nrvo.skipdtor:                                    ; preds = %entry
  ret void
}